
flash_TC2xx.elf:     file format elf32-tricore


Disassembly of section .text:

70000000 <start>:
70000000:	00 00       	nop 
70000002:	00 00       	nop 
70000004:	91 00 00 a7 	movh.a %sp,28672
70000008:	d9 aa 00 04 	lea %sp,[%sp]16384 <70004000 <ZBSS_BASE+0x2000>>
7000000c:	9d 70 09 00 	ja 70000012 <main>
70000010:	00 90       	ret 

70000012 <main>:
70000012:	4c 44       	ld.w %d15,[%a4]16
70000014:	d9 aa e0 bf 	lea %sp,[%sp]-288
70000018:	1e 15       	jeq %d15,1,70000022 <main+0x10>
7000001a:	df 2f 6e 00 	jeq %d15,2,700000f6 <main+0xe4>
7000001e:	00 a0       	debug 
70000020:	00 90       	ret 
70000022:	4c 42       	ld.w %d15,[%a4]8
70000024:	78 03       	st.w [%sp]12,%d15
70000026:	82 0f       	mov %d15,0
70000028:	7b 00 f0 28 	movh %d2,36608
7000002c:	7b 00 00 38 	movh %d3,32768
70000030:	78 07       	st.w [%sp]28,%d15
70000032:	4c 40       	ld.w %d15,[%a4]0
70000034:	99 43 14 00 	ld.a %a3,[%a4]20
70000038:	26 2f       	and %d15,%d2
7000003a:	5f 3f 5b 00 	jeq %d15,%d3,700000f0 <main+0xde>
7000003e:	7e 23       	jne %d15,%d2,70000044 <main+0x32>
70000040:	da 08       	mov %d15,8
70000042:	78 07       	st.w [%sp]28,%d15
70000044:	58 07       	ld.w %d15,[%sp]28
70000046:	ee 05       	jnz %d15,70000050 <main+0x3e>
70000048:	3b 00 10 f0 	mov %d15,256
7000004c:	6c 44       	st.w [%a4]16,%d15
7000004e:	00 a0       	debug 
70000050:	4c 43       	ld.w %d15,[%a4]12
70000052:	91 00 f0 fa 	movh.a %a15,44800
70000056:	91 00 f0 ea 	movh.a %a14,44800
7000005a:	91 00 f0 da 	movh.a %a13,44800
7000005e:	91 10 f0 ca 	movh.a %a12,44801
70000062:	91 10 f0 7a 	movh.a %a7,44801
70000066:	91 10 f0 2a 	movh.a %a2,44801
7000006a:	7b 00 80 bf 	movh %d11,63488
7000006e:	82 02       	mov %d2,0
70000070:	d9 ff 54 55 	lea %a15,[%a15]21844 <af005554 <__CSA_END+0x3effd554>>
70000074:	3b 00 05 80 	mov %d8,80
70000078:	3b d0 05 10 	mov %d1,93
7000007c:	d9 ee 70 75 	lea %a14,[%a14]22000 <af0055f0 <__CSA_END+0x3effd5f0>>
70000080:	d9 dd 74 75 	lea %a13,[%a13]22004 <af0055f4 <__CSA_END+0x3effd5f4>>
70000084:	d9 cc 90 9a 	lea %a12,[%a12]-21936 <af00aa50 <__CSA_END+0x3f002a50>>
70000088:	d9 77 98 9a 	lea %a7,[%a7]-21928 <af00aa58 <__CSA_END+0x3f002a58>>
7000008c:	d9 22 a8 aa 	lea %a2,[%a2]-21848 <af00aaa8 <__CSA_END+0x3f002aa8>>
70000090:	3b 00 0a 00 	mov %d0,160
70000094:	3b a0 07 70 	mov %d7,122
70000098:	3b 00 00 64 	mov %d6,16384
7000009c:	1b 0b 01 b2 	addi %d11,%d11,8208
700000a0:	3b a0 0f 40 	mov %d4,250
700000a4:	3b 00 10 50 	mov %d5,256
700000a8:	df 0f f4 04 	jeq %d15,0,70000a90 <main+0xa7e>
700000ac:	19 a3 0c 00 	ld.w %d3,[%sp]12
700000b0:	59 a2 08 00 	st.w [%sp]8,%d2
700000b4:	19 a9 08 00 	ld.w %d9,[%sp]8
700000b8:	19 a3 1c 00 	ld.w %d3,[%sp]28
700000bc:	7f 39 6b 84 	jge.u %d9,%d3,70000992 <main+0x980>
700000c0:	c2 cf       	add %d15,-4
700000c2:	19 a9 08 00 	ld.w %d9,[%sp]8
700000c6:	d9 a6 20 40 	lea %a6,[%sp]288
700000ca:	01 69 02 56 	addsc.a %a5,%a6,%d9,2
700000ce:	44 33       	ld.w %d3,[%a3+]
700000d0:	59 53 c0 cf 	st.w [%a5]-256,%d3
700000d4:	19 a3 08 00 	ld.w %d3,[%sp]8
700000d8:	92 ca       	add %d10,%d15,-4
700000da:	c2 13       	add %d3,1
700000dc:	59 a3 08 00 	st.w [%sp]8,%d3
700000e0:	19 a9 08 00 	ld.w %d9,[%sp]8
700000e4:	19 a3 1c 00 	ld.w %d3,[%sp]28
700000e8:	7f 39 54 84 	jge.u %d9,%d3,70000990 <main+0x97e>
700000ec:	02 af       	mov %d15,%d10
700000ee:	3c ea       	j 700000c2 <main+0xb0>
700000f0:	da 40       	mov %d15,64
700000f2:	78 07       	st.w [%sp]28,%d15
700000f4:	3c a8       	j 70000044 <main+0x32>
700000f6:	82 0f       	mov %d15,0
700000f8:	54 42       	ld.w %d2,[%a4]
700000fa:	19 44 08 00 	ld.w %d4,[%a4]8
700000fe:	78 07       	st.w [%sp]28,%d15
70000100:	0f 24 c0 f0 	xor %d15,%d4,%d2
70000104:	8f ff cf f1 	andn %d15,%d15,255
70000108:	ee 0b       	jnz %d15,7000011e <main+0x10c>
7000010a:	58 07       	ld.w %d15,[%sp]28
7000010c:	ee 09       	jnz %d15,7000011e <main+0x10c>
7000010e:	3b 00 00 34 	mov %d3,16384
70000112:	59 a3 18 00 	st.w [%sp]24,%d3
70000116:	82 13       	mov %d3,1
70000118:	59 a3 1c 00 	st.w [%sp]28,%d3
7000011c:	78 08       	st.w [%sp]32,%d15
7000011e:	8f f2 cf 21 	andn %d2,%d2,255
70000122:	8f f4 cf f1 	andn %d15,%d4,255
70000126:	1b 02 00 54 	addi %d5,%d2,16384
7000012a:	5f f5 24 04 	jeq %d5,%d15,70000972 <main+0x960>
7000012e:	1b 02 00 38 	addi %d3,%d2,-32768
70000132:	9b 13 00 60 	addih %d6,%d3,1
70000136:	5f 6f 0f 04 	jeq %d15,%d6,70000954 <main+0x942>
7000013a:	1b 02 00 6c 	addi %d6,%d2,-16384
7000013e:	9b 16 00 70 	addih %d7,%d6,1
70000142:	5f 7f fa 03 	jeq %d15,%d7,70000936 <main+0x924>
70000146:	9b 12 00 70 	addih %d7,%d2,1
7000014a:	5f 7f e7 03 	jeq %d15,%d7,70000918 <main+0x906>
7000014e:	9b 15 00 70 	addih %d7,%d5,1
70000152:	5f 7f d4 03 	jeq %d15,%d7,700008fa <main+0x8e8>
70000156:	9b 23 00 70 	addih %d7,%d3,2
7000015a:	5f 7f c1 03 	jeq %d15,%d7,700008dc <main+0x8ca>
7000015e:	9b 26 00 70 	addih %d7,%d6,2
70000162:	5f 7f ae 03 	jeq %d15,%d7,700008be <main+0x8ac>
70000166:	9b 22 00 70 	addih %d7,%d2,2
7000016a:	5f 7f 9b 03 	jeq %d15,%d7,700008a0 <main+0x88e>
7000016e:	9b 33 00 70 	addih %d7,%d3,3
70000172:	5f 7f 88 03 	jeq %d15,%d7,70000882 <main+0x870>
70000176:	9b 32 00 70 	addih %d7,%d2,3
7000017a:	5f 7f 75 03 	jeq %d15,%d7,70000864 <main+0x852>
7000017e:	9b 43 00 70 	addih %d7,%d3,4
70000182:	5f 7f 62 03 	jeq %d15,%d7,70000846 <main+0x834>
70000186:	9b 42 00 70 	addih %d7,%d2,4
7000018a:	5f 7f 4f 03 	jeq %d15,%d7,70000828 <main+0x816>
7000018e:	9b 53 00 70 	addih %d7,%d3,5
70000192:	5f 7f 3c 03 	jeq %d15,%d7,7000080a <main+0x7f8>
70000196:	9b 52 00 70 	addih %d7,%d2,5
7000019a:	5f 7f 29 03 	jeq %d15,%d7,700007ec <main+0x7da>
7000019e:	9b 63 00 70 	addih %d7,%d3,6
700001a2:	5f 7f 16 03 	jeq %d15,%d7,700007ce <main+0x7bc>
700001a6:	9b 62 00 70 	addih %d7,%d2,6
700001aa:	5f 7f 03 03 	jeq %d15,%d7,700007b0 <main+0x79e>
700001ae:	9b 72 00 70 	addih %d7,%d2,7
700001b2:	5f 7f f0 02 	jeq %d15,%d7,70000792 <main+0x780>
700001b6:	9b 82 00 70 	addih %d7,%d2,8
700001ba:	5f 7f dd 02 	jeq %d15,%d7,70000774 <main+0x762>
700001be:	9b 92 00 70 	addih %d7,%d2,9
700001c2:	5f 7f ca 02 	jeq %d15,%d7,70000756 <main+0x744>
700001c6:	9b a2 00 70 	addih %d7,%d2,10
700001ca:	5f 7f b7 02 	jeq %d15,%d7,70000738 <main+0x726>
700001ce:	9b c2 00 70 	addih %d7,%d2,12
700001d2:	5f 7f a4 02 	jeq %d15,%d7,7000071a <main+0x708>
700001d6:	9b e2 00 70 	addih %d7,%d2,14
700001da:	5f 7f 91 02 	jeq %d15,%d7,700006fc <main+0x6ea>
700001de:	9b 02 01 70 	addih %d7,%d2,16
700001e2:	5f 7f 7e 02 	jeq %d15,%d7,700006de <main+0x6cc>
700001e6:	9b 42 01 70 	addih %d7,%d2,20
700001ea:	5f 7f 6b 02 	jeq %d15,%d7,700006c0 <main+0x6ae>
700001ee:	9b 82 01 70 	addih %d7,%d2,24
700001f2:	5f 7f 58 02 	jeq %d15,%d7,700006a2 <main+0x690>
700001f6:	9b c2 01 70 	addih %d7,%d2,28
700001fa:	5f 7f 45 02 	jeq %d15,%d7,70000684 <main+0x672>
700001fe:	9b 02 02 70 	addih %d7,%d2,32
70000202:	5f 7f 32 02 	jeq %d15,%d7,70000666 <main+0x654>
70000206:	9b 05 02 70 	addih %d7,%d5,32
7000020a:	5f 7f 1f 02 	jeq %d15,%d7,70000648 <main+0x636>
7000020e:	9b 13 02 70 	addih %d7,%d3,33
70000212:	5f 7f 0c 02 	jeq %d15,%d7,7000062a <main+0x618>
70000216:	9b 16 02 70 	addih %d7,%d6,33
7000021a:	5f 7f f9 01 	jeq %d15,%d7,7000060c <main+0x5fa>
7000021e:	9b 12 02 70 	addih %d7,%d2,33
70000222:	5f 7f e6 01 	jeq %d15,%d7,700005ee <main+0x5dc>
70000226:	9b 15 02 50 	addih %d5,%d5,33
7000022a:	5f 5f d3 01 	jeq %d15,%d5,700005d0 <main+0x5be>
7000022e:	9b 23 02 50 	addih %d5,%d3,34
70000232:	5f 5f c0 01 	jeq %d15,%d5,700005b2 <main+0x5a0>
70000236:	9b 26 02 60 	addih %d6,%d6,34
7000023a:	5f 6f ad 01 	jeq %d15,%d6,70000594 <main+0x582>
7000023e:	9b 22 02 50 	addih %d5,%d2,34
70000242:	5f 5f 9a 01 	jeq %d15,%d5,70000576 <main+0x564>
70000246:	9b 33 02 50 	addih %d5,%d3,35
7000024a:	5f 5f 87 01 	jeq %d15,%d5,70000558 <main+0x546>
7000024e:	9b 32 02 50 	addih %d5,%d2,35
70000252:	5f 5f 74 01 	jeq %d15,%d5,7000053a <main+0x528>
70000256:	9b 43 02 50 	addih %d5,%d3,36
7000025a:	5f 5f 61 01 	jeq %d15,%d5,7000051c <main+0x50a>
7000025e:	9b 42 02 50 	addih %d5,%d2,36
70000262:	5f 5f 4e 01 	jeq %d15,%d5,700004fe <main+0x4ec>
70000266:	9b 53 02 50 	addih %d5,%d3,37
7000026a:	5f 5f 3b 01 	jeq %d15,%d5,700004e0 <main+0x4ce>
7000026e:	9b 52 02 50 	addih %d5,%d2,37
70000272:	5f 5f 28 01 	jeq %d15,%d5,700004c2 <main+0x4b0>
70000276:	9b 63 02 30 	addih %d3,%d3,38
7000027a:	5f 3f 15 01 	jeq %d15,%d3,700004a4 <main+0x492>
7000027e:	9b 62 02 30 	addih %d3,%d2,38
70000282:	5f 3f 02 01 	jeq %d15,%d3,70000486 <main+0x474>
70000286:	9b 72 02 30 	addih %d3,%d2,39
7000028a:	5f 3f ef 00 	jeq %d15,%d3,70000468 <main+0x456>
7000028e:	9b 82 02 30 	addih %d3,%d2,40
70000292:	5f 3f dc 00 	jeq %d15,%d3,7000044a <main+0x438>
70000296:	9b 92 02 30 	addih %d3,%d2,41
7000029a:	5f 3f c9 00 	jeq %d15,%d3,7000042c <main+0x41a>
7000029e:	9b a2 02 30 	addih %d3,%d2,42
700002a2:	5f 3f b6 00 	jeq %d15,%d3,7000040e <main+0x3fc>
700002a6:	9b c2 02 30 	addih %d3,%d2,44
700002aa:	5f 3f a3 00 	jeq %d15,%d3,700003f0 <main+0x3de>
700002ae:	9b e2 02 30 	addih %d3,%d2,46
700002b2:	5f 3f 90 00 	jeq %d15,%d3,700003d2 <main+0x3c0>
700002b6:	9b 02 03 30 	addih %d3,%d2,48
700002ba:	5f 3f 7d 00 	jeq %d15,%d3,700003b4 <main+0x3a2>
700002be:	9b 42 03 30 	addih %d3,%d2,52
700002c2:	5f 3f 6b 00 	jeq %d15,%d3,70000398 <main+0x386>
700002c6:	9b 82 03 30 	addih %d3,%d2,56
700002ca:	5f 3f 59 00 	jeq %d15,%d3,7000037c <main+0x36a>
700002ce:	9b c2 03 20 	addih %d2,%d2,60
700002d2:	5f 2f 4a 00 	jeq %d15,%d2,70000366 <main+0x354>
700002d6:	82 1f       	mov %d15,1
700002d8:	78 07       	st.w [%sp]28,%d15
700002da:	58 07       	ld.w %d15,[%sp]28
700002dc:	ee 05       	jnz %d15,700002e6 <main+0x2d4>
700002de:	3b 00 10 f0 	mov %d15,256
700002e2:	6c 44       	st.w [%a4]16,%d15
700002e4:	00 a0       	debug 
700002e6:	91 10 f0 fa 	movh.a %a15,44801
700002ea:	d9 ff 90 9a 	lea %a15,[%a15]-21936 <af00aa50 <__CSA_END+0x3f002a50>>
700002ee:	68 04       	st.w [%a15]0,%d4
700002f0:	0d 00 80 04 	dsync 
700002f4:	82 1f       	mov %d15,1
700002f6:	91 10 f0 fa 	movh.a %a15,44801
700002fa:	d9 ff 98 9a 	lea %a15,[%a15]-21928 <af00aa58 <__CSA_END+0x3f002a58>>
700002fe:	68 0f       	st.w [%a15]0,%d15
70000300:	0d 00 80 04 	dsync 
70000304:	da 80       	mov %d15,128
70000306:	91 10 f0 fa 	movh.a %a15,44801
7000030a:	d9 ff a8 aa 	lea %a15,[%a15]-21848 <af00aaa8 <__CSA_END+0x3f002aa8>>
7000030e:	68 0f       	st.w [%a15]0,%d15
70000310:	0d 00 80 04 	dsync 
70000314:	da 50       	mov %d15,80
70000316:	68 0f       	st.w [%a15]0,%d15
70000318:	0d 00 80 04 	dsync 
7000031c:	91 00 80 ff 	movh.a %a15,63488
70000320:	7b 40 00 20 	movh %d2,4
70000324:	d9 ff 10 02 	lea %a15,[%a15]8208 <f8002010 <__CSA_END+0x87ffa010>>
70000328:	82 03       	mov %d3,0
7000032a:	59 a3 08 00 	st.w [%sp]8,%d3
7000032e:	58 02       	ld.w %d15,[%sp]8
70000330:	7f 2f 0e 80 	jge.u %d15,%d2,7000034c <main+0x33a>
70000334:	58 02       	ld.w %d15,[%sp]8
70000336:	c2 1f       	add %d15,1
70000338:	78 02       	st.w [%sp]8,%d15
7000033a:	58 02       	ld.w %d15,[%sp]8
7000033c:	c2 ff       	add %d15,-1
7000033e:	78 02       	st.w [%sp]8,%d15
70000340:	58 02       	ld.w %d15,[%sp]8
70000342:	c2 1f       	add %d15,1
70000344:	78 02       	st.w [%sp]8,%d15
70000346:	58 02       	ld.w %d15,[%sp]8
70000348:	3f 2f f6 ff 	jlt.u %d15,%d2,70000334 <main+0x322>
7000034c:	4c f0       	ld.w %d15,[%a15]0
7000034e:	78 04       	st.w [%sp]16,%d15
70000350:	0d 00 80 04 	dsync 
70000354:	4c f0       	ld.w %d15,[%a15]0
70000356:	16 1e       	and %d15,30
70000358:	ee e9       	jnz %d15,7000032a <main+0x318>
7000035a:	6c 44       	st.w [%a4]16,%d15
7000035c:	00 00       	nop 
7000035e:	00 00       	nop 
70000360:	00 00       	nop 
70000362:	00 a0       	debug 
70000364:	3c e3       	j 7000032a <main+0x318>
70000366:	58 07       	ld.w %d15,[%sp]28
70000368:	ee b7       	jnz %d15,700002d6 <main+0x2c4>
7000036a:	7b 40 00 20 	movh %d2,4
7000036e:	59 a2 18 00 	st.w [%sp]24,%d2
70000372:	82 12       	mov %d2,1
70000374:	59 a2 1c 00 	st.w [%sp]28,%d2
70000378:	78 08       	st.w [%sp]32,%d15
7000037a:	3c ae       	j 700002d6 <main+0x2c4>
7000037c:	19 a3 1c 00 	ld.w %d3,[%sp]28
70000380:	df 03 a7 ff 	jne %d3,0,700002ce <main+0x2bc>
70000384:	7b 40 00 50 	movh %d5,4
70000388:	59 a5 18 00 	st.w [%sp]24,%d5
7000038c:	82 15       	mov %d5,1
7000038e:	59 a5 1c 00 	st.w [%sp]28,%d5
70000392:	59 a3 20 00 	st.w [%sp]32,%d3
70000396:	3c 9c       	j 700002ce <main+0x2bc>
70000398:	19 a3 1c 00 	ld.w %d3,[%sp]28
7000039c:	df 03 95 ff 	jne %d3,0,700002c6 <main+0x2b4>
700003a0:	7b 40 00 50 	movh %d5,4
700003a4:	59 a5 18 00 	st.w [%sp]24,%d5
700003a8:	82 15       	mov %d5,1
700003aa:	59 a5 1c 00 	st.w [%sp]28,%d5
700003ae:	59 a3 20 00 	st.w [%sp]32,%d3
700003b2:	3c 8a       	j 700002c6 <main+0x2b4>
700003b4:	19 a3 1c 00 	ld.w %d3,[%sp]28
700003b8:	df 03 83 ff 	jne %d3,0,700002be <main+0x2ac>
700003bc:	7b 40 00 50 	movh %d5,4
700003c0:	59 a5 18 00 	st.w [%sp]24,%d5
700003c4:	82 15       	mov %d5,1
700003c6:	59 a5 1c 00 	st.w [%sp]28,%d5
700003ca:	59 a3 20 00 	st.w [%sp]32,%d3
700003ce:	1d ff 78 ff 	j 700002be <main+0x2ac>
700003d2:	19 a3 1c 00 	ld.w %d3,[%sp]28
700003d6:	df 03 70 ff 	jne %d3,0,700002b6 <main+0x2a4>
700003da:	7b 20 00 50 	movh %d5,2
700003de:	59 a5 18 00 	st.w [%sp]24,%d5
700003e2:	82 15       	mov %d5,1
700003e4:	59 a5 1c 00 	st.w [%sp]28,%d5
700003e8:	59 a3 20 00 	st.w [%sp]32,%d3
700003ec:	1d ff 65 ff 	j 700002b6 <main+0x2a4>
700003f0:	19 a3 1c 00 	ld.w %d3,[%sp]28
700003f4:	df 03 5d ff 	jne %d3,0,700002ae <main+0x29c>
700003f8:	7b 20 00 50 	movh %d5,2
700003fc:	59 a5 18 00 	st.w [%sp]24,%d5
70000400:	82 15       	mov %d5,1
70000402:	59 a5 1c 00 	st.w [%sp]28,%d5
70000406:	59 a3 20 00 	st.w [%sp]32,%d3
7000040a:	1d ff 52 ff 	j 700002ae <main+0x29c>
7000040e:	19 a3 1c 00 	ld.w %d3,[%sp]28
70000412:	df 03 4a ff 	jne %d3,0,700002a6 <main+0x294>
70000416:	7b 20 00 50 	movh %d5,2
7000041a:	59 a5 18 00 	st.w [%sp]24,%d5
7000041e:	82 15       	mov %d5,1
70000420:	59 a5 1c 00 	st.w [%sp]28,%d5
70000424:	59 a3 20 00 	st.w [%sp]32,%d3
70000428:	1d ff 3f ff 	j 700002a6 <main+0x294>
7000042c:	19 a3 1c 00 	ld.w %d3,[%sp]28
70000430:	df 03 37 ff 	jne %d3,0,7000029e <main+0x28c>
70000434:	7b 10 00 50 	movh %d5,1
70000438:	59 a5 18 00 	st.w [%sp]24,%d5
7000043c:	82 15       	mov %d5,1
7000043e:	59 a5 1c 00 	st.w [%sp]28,%d5
70000442:	59 a3 20 00 	st.w [%sp]32,%d3
70000446:	1d ff 2c ff 	j 7000029e <main+0x28c>
7000044a:	19 a3 1c 00 	ld.w %d3,[%sp]28
7000044e:	df 03 24 ff 	jne %d3,0,70000296 <main+0x284>
70000452:	7b 10 00 50 	movh %d5,1
70000456:	59 a5 18 00 	st.w [%sp]24,%d5
7000045a:	82 15       	mov %d5,1
7000045c:	59 a5 1c 00 	st.w [%sp]28,%d5
70000460:	59 a3 20 00 	st.w [%sp]32,%d3
70000464:	1d ff 19 ff 	j 70000296 <main+0x284>
70000468:	19 a3 1c 00 	ld.w %d3,[%sp]28
7000046c:	df 03 11 ff 	jne %d3,0,7000028e <main+0x27c>
70000470:	7b 10 00 50 	movh %d5,1
70000474:	59 a5 18 00 	st.w [%sp]24,%d5
70000478:	82 15       	mov %d5,1
7000047a:	59 a5 1c 00 	st.w [%sp]28,%d5
7000047e:	59 a3 20 00 	st.w [%sp]32,%d3
70000482:	1d ff 06 ff 	j 7000028e <main+0x27c>
70000486:	19 a3 1c 00 	ld.w %d3,[%sp]28
7000048a:	df 03 fe fe 	jne %d3,0,70000286 <main+0x274>
7000048e:	7b 10 00 50 	movh %d5,1
70000492:	59 a5 18 00 	st.w [%sp]24,%d5
70000496:	82 15       	mov %d5,1
70000498:	59 a5 1c 00 	st.w [%sp]28,%d5
7000049c:	59 a3 20 00 	st.w [%sp]32,%d3
700004a0:	1d ff f3 fe 	j 70000286 <main+0x274>
700004a4:	19 a3 1c 00 	ld.w %d3,[%sp]28
700004a8:	df 03 eb fe 	jne %d3,0,7000027e <main+0x26c>
700004ac:	bb 00 00 58 	mov.u %d5,32768
700004b0:	59 a5 18 00 	st.w [%sp]24,%d5
700004b4:	82 15       	mov %d5,1
700004b6:	59 a5 1c 00 	st.w [%sp]28,%d5
700004ba:	59 a3 20 00 	st.w [%sp]32,%d3
700004be:	1d ff e0 fe 	j 7000027e <main+0x26c>
700004c2:	19 a5 1c 00 	ld.w %d5,[%sp]28
700004c6:	df 05 d8 fe 	jne %d5,0,70000276 <main+0x264>
700004ca:	bb 00 00 68 	mov.u %d6,32768
700004ce:	59 a6 18 00 	st.w [%sp]24,%d6
700004d2:	82 16       	mov %d6,1
700004d4:	59 a6 1c 00 	st.w [%sp]28,%d6
700004d8:	59 a5 20 00 	st.w [%sp]32,%d5
700004dc:	1d ff cd fe 	j 70000276 <main+0x264>
700004e0:	19 a5 1c 00 	ld.w %d5,[%sp]28
700004e4:	df 05 c5 fe 	jne %d5,0,7000026e <main+0x25c>
700004e8:	bb 00 00 68 	mov.u %d6,32768
700004ec:	59 a6 18 00 	st.w [%sp]24,%d6
700004f0:	82 16       	mov %d6,1
700004f2:	59 a6 1c 00 	st.w [%sp]28,%d6
700004f6:	59 a5 20 00 	st.w [%sp]32,%d5
700004fa:	1d ff ba fe 	j 7000026e <main+0x25c>
700004fe:	19 a5 1c 00 	ld.w %d5,[%sp]28
70000502:	df 05 b2 fe 	jne %d5,0,70000266 <main+0x254>
70000506:	bb 00 00 68 	mov.u %d6,32768
7000050a:	59 a6 18 00 	st.w [%sp]24,%d6
7000050e:	82 16       	mov %d6,1
70000510:	59 a6 1c 00 	st.w [%sp]28,%d6
70000514:	59 a5 20 00 	st.w [%sp]32,%d5
70000518:	1d ff a7 fe 	j 70000266 <main+0x254>
7000051c:	19 a5 1c 00 	ld.w %d5,[%sp]28
70000520:	df 05 9f fe 	jne %d5,0,7000025e <main+0x24c>
70000524:	bb 00 00 68 	mov.u %d6,32768
70000528:	59 a6 18 00 	st.w [%sp]24,%d6
7000052c:	82 16       	mov %d6,1
7000052e:	59 a6 1c 00 	st.w [%sp]28,%d6
70000532:	59 a5 20 00 	st.w [%sp]32,%d5
70000536:	1d ff 94 fe 	j 7000025e <main+0x24c>
7000053a:	19 a5 1c 00 	ld.w %d5,[%sp]28
7000053e:	df 05 8c fe 	jne %d5,0,70000256 <main+0x244>
70000542:	bb 00 00 68 	mov.u %d6,32768
70000546:	59 a6 18 00 	st.w [%sp]24,%d6
7000054a:	82 16       	mov %d6,1
7000054c:	59 a6 1c 00 	st.w [%sp]28,%d6
70000550:	59 a5 20 00 	st.w [%sp]32,%d5
70000554:	1d ff 81 fe 	j 70000256 <main+0x244>
70000558:	19 a5 1c 00 	ld.w %d5,[%sp]28
7000055c:	df 05 79 fe 	jne %d5,0,7000024e <main+0x23c>
70000560:	bb 00 00 68 	mov.u %d6,32768
70000564:	59 a6 18 00 	st.w [%sp]24,%d6
70000568:	82 16       	mov %d6,1
7000056a:	59 a6 1c 00 	st.w [%sp]28,%d6
7000056e:	59 a5 20 00 	st.w [%sp]32,%d5
70000572:	1d ff 6e fe 	j 7000024e <main+0x23c>
70000576:	19 a5 1c 00 	ld.w %d5,[%sp]28
7000057a:	df 05 66 fe 	jne %d5,0,70000246 <main+0x234>
7000057e:	bb 00 00 68 	mov.u %d6,32768
70000582:	59 a6 18 00 	st.w [%sp]24,%d6
70000586:	82 16       	mov %d6,1
70000588:	59 a6 1c 00 	st.w [%sp]28,%d6
7000058c:	59 a5 20 00 	st.w [%sp]32,%d5
70000590:	1d ff 5b fe 	j 70000246 <main+0x234>
70000594:	19 a5 1c 00 	ld.w %d5,[%sp]28
70000598:	df 05 53 fe 	jne %d5,0,7000023e <main+0x22c>
7000059c:	3b 00 00 64 	mov %d6,16384
700005a0:	59 a6 18 00 	st.w [%sp]24,%d6
700005a4:	82 16       	mov %d6,1
700005a6:	59 a6 1c 00 	st.w [%sp]28,%d6
700005aa:	59 a5 20 00 	st.w [%sp]32,%d5
700005ae:	1d ff 48 fe 	j 7000023e <main+0x22c>
700005b2:	19 a5 1c 00 	ld.w %d5,[%sp]28
700005b6:	df 05 40 fe 	jne %d5,0,70000236 <main+0x224>
700005ba:	3b 00 00 74 	mov %d7,16384
700005be:	59 a7 18 00 	st.w [%sp]24,%d7
700005c2:	82 17       	mov %d7,1
700005c4:	59 a7 1c 00 	st.w [%sp]28,%d7
700005c8:	59 a5 20 00 	st.w [%sp]32,%d5
700005cc:	1d ff 35 fe 	j 70000236 <main+0x224>
700005d0:	19 a5 1c 00 	ld.w %d5,[%sp]28
700005d4:	df 05 2d fe 	jne %d5,0,7000022e <main+0x21c>
700005d8:	3b 00 00 74 	mov %d7,16384
700005dc:	59 a7 18 00 	st.w [%sp]24,%d7
700005e0:	82 17       	mov %d7,1
700005e2:	59 a7 1c 00 	st.w [%sp]28,%d7
700005e6:	59 a5 20 00 	st.w [%sp]32,%d5
700005ea:	1d ff 22 fe 	j 7000022e <main+0x21c>
700005ee:	19 a7 1c 00 	ld.w %d7,[%sp]28
700005f2:	df 07 1a fe 	jne %d7,0,70000226 <main+0x214>
700005f6:	3b 00 00 04 	mov %d0,16384
700005fa:	59 a0 18 00 	st.w [%sp]24,%d0
700005fe:	82 10       	mov %d0,1
70000600:	59 a0 1c 00 	st.w [%sp]28,%d0
70000604:	59 a7 20 00 	st.w [%sp]32,%d7
70000608:	1d ff 0f fe 	j 70000226 <main+0x214>
7000060c:	19 a7 1c 00 	ld.w %d7,[%sp]28
70000610:	df 07 07 fe 	jne %d7,0,7000021e <main+0x20c>
70000614:	3b 00 00 04 	mov %d0,16384
70000618:	59 a0 18 00 	st.w [%sp]24,%d0
7000061c:	82 10       	mov %d0,1
7000061e:	59 a0 1c 00 	st.w [%sp]28,%d0
70000622:	59 a7 20 00 	st.w [%sp]32,%d7
70000626:	1d ff fc fd 	j 7000021e <main+0x20c>
7000062a:	19 a7 1c 00 	ld.w %d7,[%sp]28
7000062e:	df 07 f4 fd 	jne %d7,0,70000216 <main+0x204>
70000632:	3b 00 00 04 	mov %d0,16384
70000636:	59 a0 18 00 	st.w [%sp]24,%d0
7000063a:	82 10       	mov %d0,1
7000063c:	59 a0 1c 00 	st.w [%sp]28,%d0
70000640:	59 a7 20 00 	st.w [%sp]32,%d7
70000644:	1d ff e9 fd 	j 70000216 <main+0x204>
70000648:	19 a7 1c 00 	ld.w %d7,[%sp]28
7000064c:	df 07 e1 fd 	jne %d7,0,7000020e <main+0x1fc>
70000650:	3b 00 00 04 	mov %d0,16384
70000654:	59 a0 18 00 	st.w [%sp]24,%d0
70000658:	82 10       	mov %d0,1
7000065a:	59 a0 1c 00 	st.w [%sp]28,%d0
7000065e:	59 a7 20 00 	st.w [%sp]32,%d7
70000662:	1d ff d6 fd 	j 7000020e <main+0x1fc>
70000666:	19 a7 1c 00 	ld.w %d7,[%sp]28
7000066a:	df 07 ce fd 	jne %d7,0,70000206 <main+0x1f4>
7000066e:	3b 00 00 04 	mov %d0,16384
70000672:	59 a0 18 00 	st.w [%sp]24,%d0
70000676:	82 10       	mov %d0,1
70000678:	59 a0 1c 00 	st.w [%sp]28,%d0
7000067c:	59 a7 20 00 	st.w [%sp]32,%d7
70000680:	1d ff c3 fd 	j 70000206 <main+0x1f4>
70000684:	19 a7 1c 00 	ld.w %d7,[%sp]28
70000688:	df 07 bb fd 	jne %d7,0,700001fe <main+0x1ec>
7000068c:	7b 40 00 00 	movh %d0,4
70000690:	59 a0 18 00 	st.w [%sp]24,%d0
70000694:	82 10       	mov %d0,1
70000696:	59 a0 1c 00 	st.w [%sp]28,%d0
7000069a:	59 a7 20 00 	st.w [%sp]32,%d7
7000069e:	1d ff b0 fd 	j 700001fe <main+0x1ec>
700006a2:	19 a7 1c 00 	ld.w %d7,[%sp]28
700006a6:	df 07 a8 fd 	jne %d7,0,700001f6 <main+0x1e4>
700006aa:	7b 40 00 00 	movh %d0,4
700006ae:	59 a0 18 00 	st.w [%sp]24,%d0
700006b2:	82 10       	mov %d0,1
700006b4:	59 a0 1c 00 	st.w [%sp]28,%d0
700006b8:	59 a7 20 00 	st.w [%sp]32,%d7
700006bc:	1d ff 9d fd 	j 700001f6 <main+0x1e4>
700006c0:	19 a7 1c 00 	ld.w %d7,[%sp]28
700006c4:	df 07 95 fd 	jne %d7,0,700001ee <main+0x1dc>
700006c8:	7b 40 00 00 	movh %d0,4
700006cc:	59 a0 18 00 	st.w [%sp]24,%d0
700006d0:	82 10       	mov %d0,1
700006d2:	59 a0 1c 00 	st.w [%sp]28,%d0
700006d6:	59 a7 20 00 	st.w [%sp]32,%d7
700006da:	1d ff 8a fd 	j 700001ee <main+0x1dc>
700006de:	19 a7 1c 00 	ld.w %d7,[%sp]28
700006e2:	df 07 82 fd 	jne %d7,0,700001e6 <main+0x1d4>
700006e6:	7b 40 00 00 	movh %d0,4
700006ea:	59 a0 18 00 	st.w [%sp]24,%d0
700006ee:	82 10       	mov %d0,1
700006f0:	59 a0 1c 00 	st.w [%sp]28,%d0
700006f4:	59 a7 20 00 	st.w [%sp]32,%d7
700006f8:	1d ff 77 fd 	j 700001e6 <main+0x1d4>
700006fc:	19 a7 1c 00 	ld.w %d7,[%sp]28
70000700:	df 07 6f fd 	jne %d7,0,700001de <main+0x1cc>
70000704:	7b 20 00 00 	movh %d0,2
70000708:	59 a0 18 00 	st.w [%sp]24,%d0
7000070c:	82 10       	mov %d0,1
7000070e:	59 a0 1c 00 	st.w [%sp]28,%d0
70000712:	59 a7 20 00 	st.w [%sp]32,%d7
70000716:	1d ff 64 fd 	j 700001de <main+0x1cc>
7000071a:	19 a7 1c 00 	ld.w %d7,[%sp]28
7000071e:	df 07 5c fd 	jne %d7,0,700001d6 <main+0x1c4>
70000722:	7b 20 00 00 	movh %d0,2
70000726:	59 a0 18 00 	st.w [%sp]24,%d0
7000072a:	82 10       	mov %d0,1
7000072c:	59 a0 1c 00 	st.w [%sp]28,%d0
70000730:	59 a7 20 00 	st.w [%sp]32,%d7
70000734:	1d ff 51 fd 	j 700001d6 <main+0x1c4>
70000738:	19 a7 1c 00 	ld.w %d7,[%sp]28
7000073c:	df 07 49 fd 	jne %d7,0,700001ce <main+0x1bc>
70000740:	7b 20 00 00 	movh %d0,2
70000744:	59 a0 18 00 	st.w [%sp]24,%d0
70000748:	82 10       	mov %d0,1
7000074a:	59 a0 1c 00 	st.w [%sp]28,%d0
7000074e:	59 a7 20 00 	st.w [%sp]32,%d7
70000752:	1d ff 3e fd 	j 700001ce <main+0x1bc>
70000756:	19 a7 1c 00 	ld.w %d7,[%sp]28
7000075a:	df 07 36 fd 	jne %d7,0,700001c6 <main+0x1b4>
7000075e:	7b 10 00 00 	movh %d0,1
70000762:	59 a0 18 00 	st.w [%sp]24,%d0
70000766:	82 10       	mov %d0,1
70000768:	59 a0 1c 00 	st.w [%sp]28,%d0
7000076c:	59 a7 20 00 	st.w [%sp]32,%d7
70000770:	1d ff 2b fd 	j 700001c6 <main+0x1b4>
70000774:	19 a7 1c 00 	ld.w %d7,[%sp]28
70000778:	df 07 23 fd 	jne %d7,0,700001be <main+0x1ac>
7000077c:	7b 10 00 00 	movh %d0,1
70000780:	59 a0 18 00 	st.w [%sp]24,%d0
70000784:	82 10       	mov %d0,1
70000786:	59 a0 1c 00 	st.w [%sp]28,%d0
7000078a:	59 a7 20 00 	st.w [%sp]32,%d7
7000078e:	1d ff 18 fd 	j 700001be <main+0x1ac>
70000792:	19 a7 1c 00 	ld.w %d7,[%sp]28
70000796:	df 07 10 fd 	jne %d7,0,700001b6 <main+0x1a4>
7000079a:	7b 10 00 00 	movh %d0,1
7000079e:	59 a0 18 00 	st.w [%sp]24,%d0
700007a2:	82 10       	mov %d0,1
700007a4:	59 a0 1c 00 	st.w [%sp]28,%d0
700007a8:	59 a7 20 00 	st.w [%sp]32,%d7
700007ac:	1d ff 05 fd 	j 700001b6 <main+0x1a4>
700007b0:	19 a7 1c 00 	ld.w %d7,[%sp]28
700007b4:	df 07 fd fc 	jne %d7,0,700001ae <main+0x19c>
700007b8:	7b 10 00 00 	movh %d0,1
700007bc:	59 a0 18 00 	st.w [%sp]24,%d0
700007c0:	82 10       	mov %d0,1
700007c2:	59 a0 1c 00 	st.w [%sp]28,%d0
700007c6:	59 a7 20 00 	st.w [%sp]32,%d7
700007ca:	1d ff f2 fc 	j 700001ae <main+0x19c>
700007ce:	19 a7 1c 00 	ld.w %d7,[%sp]28
700007d2:	df 07 ea fc 	jne %d7,0,700001a6 <main+0x194>
700007d6:	bb 00 00 08 	mov.u %d0,32768
700007da:	59 a0 18 00 	st.w [%sp]24,%d0
700007de:	82 10       	mov %d0,1
700007e0:	59 a0 1c 00 	st.w [%sp]28,%d0
700007e4:	59 a7 20 00 	st.w [%sp]32,%d7
700007e8:	1d ff df fc 	j 700001a6 <main+0x194>
700007ec:	19 a7 1c 00 	ld.w %d7,[%sp]28
700007f0:	df 07 d7 fc 	jne %d7,0,7000019e <main+0x18c>
700007f4:	bb 00 00 08 	mov.u %d0,32768
700007f8:	59 a0 18 00 	st.w [%sp]24,%d0
700007fc:	82 10       	mov %d0,1
700007fe:	59 a0 1c 00 	st.w [%sp]28,%d0
70000802:	59 a7 20 00 	st.w [%sp]32,%d7
70000806:	1d ff cc fc 	j 7000019e <main+0x18c>
7000080a:	19 a7 1c 00 	ld.w %d7,[%sp]28
7000080e:	df 07 c4 fc 	jne %d7,0,70000196 <main+0x184>
70000812:	bb 00 00 08 	mov.u %d0,32768
70000816:	59 a0 18 00 	st.w [%sp]24,%d0
7000081a:	82 10       	mov %d0,1
7000081c:	59 a0 1c 00 	st.w [%sp]28,%d0
70000820:	59 a7 20 00 	st.w [%sp]32,%d7
70000824:	1d ff b9 fc 	j 70000196 <main+0x184>
70000828:	19 a7 1c 00 	ld.w %d7,[%sp]28
7000082c:	df 07 b1 fc 	jne %d7,0,7000018e <main+0x17c>
70000830:	bb 00 00 08 	mov.u %d0,32768
70000834:	59 a0 18 00 	st.w [%sp]24,%d0
70000838:	82 10       	mov %d0,1
7000083a:	59 a0 1c 00 	st.w [%sp]28,%d0
7000083e:	59 a7 20 00 	st.w [%sp]32,%d7
70000842:	1d ff a6 fc 	j 7000018e <main+0x17c>
70000846:	19 a7 1c 00 	ld.w %d7,[%sp]28
7000084a:	df 07 9e fc 	jne %d7,0,70000186 <main+0x174>
7000084e:	bb 00 00 08 	mov.u %d0,32768
70000852:	59 a0 18 00 	st.w [%sp]24,%d0
70000856:	82 10       	mov %d0,1
70000858:	59 a0 1c 00 	st.w [%sp]28,%d0
7000085c:	59 a7 20 00 	st.w [%sp]32,%d7
70000860:	1d ff 93 fc 	j 70000186 <main+0x174>
70000864:	19 a7 1c 00 	ld.w %d7,[%sp]28
70000868:	df 07 8b fc 	jne %d7,0,7000017e <main+0x16c>
7000086c:	bb 00 00 08 	mov.u %d0,32768
70000870:	59 a0 18 00 	st.w [%sp]24,%d0
70000874:	82 10       	mov %d0,1
70000876:	59 a0 1c 00 	st.w [%sp]28,%d0
7000087a:	59 a7 20 00 	st.w [%sp]32,%d7
7000087e:	1d ff 80 fc 	j 7000017e <main+0x16c>
70000882:	19 a7 1c 00 	ld.w %d7,[%sp]28
70000886:	df 07 78 fc 	jne %d7,0,70000176 <main+0x164>
7000088a:	bb 00 00 08 	mov.u %d0,32768
7000088e:	59 a0 18 00 	st.w [%sp]24,%d0
70000892:	82 10       	mov %d0,1
70000894:	59 a0 1c 00 	st.w [%sp]28,%d0
70000898:	59 a7 20 00 	st.w [%sp]32,%d7
7000089c:	1d ff 6d fc 	j 70000176 <main+0x164>
700008a0:	19 a7 1c 00 	ld.w %d7,[%sp]28
700008a4:	df 07 65 fc 	jne %d7,0,7000016e <main+0x15c>
700008a8:	bb 00 00 08 	mov.u %d0,32768
700008ac:	59 a0 18 00 	st.w [%sp]24,%d0
700008b0:	82 10       	mov %d0,1
700008b2:	59 a0 1c 00 	st.w [%sp]28,%d0
700008b6:	59 a7 20 00 	st.w [%sp]32,%d7
700008ba:	1d ff 5a fc 	j 7000016e <main+0x15c>
700008be:	19 a7 1c 00 	ld.w %d7,[%sp]28
700008c2:	df 07 52 fc 	jne %d7,0,70000166 <main+0x154>
700008c6:	3b 00 00 04 	mov %d0,16384
700008ca:	59 a0 18 00 	st.w [%sp]24,%d0
700008ce:	82 10       	mov %d0,1
700008d0:	59 a0 1c 00 	st.w [%sp]28,%d0
700008d4:	59 a7 20 00 	st.w [%sp]32,%d7
700008d8:	1d ff 47 fc 	j 70000166 <main+0x154>
700008dc:	19 a7 1c 00 	ld.w %d7,[%sp]28
700008e0:	df 07 3f fc 	jne %d7,0,7000015e <main+0x14c>
700008e4:	3b 00 00 04 	mov %d0,16384
700008e8:	59 a0 18 00 	st.w [%sp]24,%d0
700008ec:	82 10       	mov %d0,1
700008ee:	59 a0 1c 00 	st.w [%sp]28,%d0
700008f2:	59 a7 20 00 	st.w [%sp]32,%d7
700008f6:	1d ff 34 fc 	j 7000015e <main+0x14c>
700008fa:	19 a7 1c 00 	ld.w %d7,[%sp]28
700008fe:	df 07 2c fc 	jne %d7,0,70000156 <main+0x144>
70000902:	3b 00 00 04 	mov %d0,16384
70000906:	59 a0 18 00 	st.w [%sp]24,%d0
7000090a:	82 10       	mov %d0,1
7000090c:	59 a0 1c 00 	st.w [%sp]28,%d0
70000910:	59 a7 20 00 	st.w [%sp]32,%d7
70000914:	1d ff 21 fc 	j 70000156 <main+0x144>
70000918:	19 a7 1c 00 	ld.w %d7,[%sp]28
7000091c:	df 07 19 fc 	jne %d7,0,7000014e <main+0x13c>
70000920:	3b 00 00 04 	mov %d0,16384
70000924:	59 a0 18 00 	st.w [%sp]24,%d0
70000928:	82 10       	mov %d0,1
7000092a:	59 a0 1c 00 	st.w [%sp]28,%d0
7000092e:	59 a7 20 00 	st.w [%sp]32,%d7
70000932:	1d ff 0e fc 	j 7000014e <main+0x13c>
70000936:	19 a7 1c 00 	ld.w %d7,[%sp]28
7000093a:	df 07 06 fc 	jne %d7,0,70000146 <main+0x134>
7000093e:	3b 00 00 04 	mov %d0,16384
70000942:	59 a0 18 00 	st.w [%sp]24,%d0
70000946:	82 10       	mov %d0,1
70000948:	59 a0 1c 00 	st.w [%sp]28,%d0
7000094c:	59 a7 20 00 	st.w [%sp]32,%d7
70000950:	1d ff fb fb 	j 70000146 <main+0x134>
70000954:	19 a6 1c 00 	ld.w %d6,[%sp]28
70000958:	df 06 f1 fb 	jne %d6,0,7000013a <main+0x128>
7000095c:	3b 00 00 74 	mov %d7,16384
70000960:	59 a7 18 00 	st.w [%sp]24,%d7
70000964:	82 17       	mov %d7,1
70000966:	59 a7 1c 00 	st.w [%sp]28,%d7
7000096a:	59 a6 20 00 	st.w [%sp]32,%d6
7000096e:	1d ff e6 fb 	j 7000013a <main+0x128>
70000972:	19 a3 1c 00 	ld.w %d3,[%sp]28
70000976:	df 03 dc fb 	jne %d3,0,7000012e <main+0x11c>
7000097a:	3b 00 00 64 	mov %d6,16384
7000097e:	59 a6 18 00 	st.w [%sp]24,%d6
70000982:	82 16       	mov %d6,1
70000984:	59 a6 1c 00 	st.w [%sp]28,%d6
70000988:	59 a3 20 00 	st.w [%sp]32,%d3
7000098c:	1d ff d1 fb 	j 7000012e <main+0x11c>
70000990:	6c 43       	st.w [%a4]12,%d15
70000992:	19 a3 1c 00 	ld.w %d3,[%sp]28
70000996:	8b 03 24 32 	ne %d3,%d3,64
7000099a:	f6 32       	jnz %d3,7000099e <main+0x98c>
7000099c:	68 08       	st.w [%a15]0,%d8
7000099e:	19 a3 1c 00 	ld.w %d3,[%sp]28
700009a2:	8b 83 20 32 	ne %d3,%d3,8
700009a6:	f6 32       	jnz %d3,700009aa <main+0x998>
700009a8:	68 01       	st.w [%a15]0,%d1
700009aa:	59 a2 08 00 	st.w [%sp]8,%d2
700009ae:	19 a9 08 00 	ld.w %d9,[%sp]8
700009b2:	19 a3 1c 00 	ld.w %d3,[%sp]28
700009b6:	7f 39 2e 80 	jge.u %d9,%d3,70000a12 <main+0xa00>
700009ba:	19 a3 08 00 	ld.w %d3,[%sp]8
700009be:	d9 a6 20 40 	lea %a6,[%sp]288
700009c2:	01 63 02 56 	addsc.a %a5,%a6,%d3,2
700009c6:	19 53 c0 cf 	ld.w %d3,[%a5]-256
700009ca:	59 a3 14 00 	st.w [%sp]20,%d3
700009ce:	19 a3 08 00 	ld.w %d3,[%sp]8
700009d2:	c2 13       	add %d3,1
700009d4:	59 a3 08 00 	st.w [%sp]8,%d3
700009d8:	19 a3 08 00 	ld.w %d3,[%sp]8
700009dc:	01 63 02 56 	addsc.a %a5,%a6,%d3,2
700009e0:	19 53 c0 cf 	ld.w %d3,[%a5]-256
700009e4:	59 a3 18 00 	st.w [%sp]24,%d3
700009e8:	19 a3 08 00 	ld.w %d3,[%sp]8
700009ec:	c2 13       	add %d3,1
700009ee:	59 a3 08 00 	st.w [%sp]8,%d3
700009f2:	19 a3 14 00 	ld.w %d3,[%sp]20
700009f6:	74 e3       	st.w [%a14],%d3
700009f8:	0d 00 80 04 	dsync 
700009fc:	19 a3 18 00 	ld.w %d3,[%sp]24
70000a00:	74 d3       	st.w [%a13],%d3
70000a02:	0d 00 80 04 	dsync 
70000a06:	19 a9 08 00 	ld.w %d9,[%sp]8
70000a0a:	19 a3 1c 00 	ld.w %d3,[%sp]28
70000a0e:	3f 39 d6 ff 	jlt.u %d9,%d3,700009ba <main+0x9a8>
70000a12:	19 a3 0c 00 	ld.w %d3,[%sp]12
70000a16:	74 c3       	st.w [%a12],%d3
70000a18:	0d 00 80 04 	dsync 
70000a1c:	74 72       	st.w [%a7],%d2
70000a1e:	0d 00 80 04 	dsync 
70000a22:	74 20       	st.w [%a2],%d0
70000a24:	0d 00 80 04 	dsync 
70000a28:	74 27       	st.w [%a2],%d7
70000a2a:	59 a6 04 00 	st.w [%sp]4,%d6
70000a2e:	19 a3 04 00 	ld.w %d3,[%sp]4
70000a32:	bf 13 25 00 	jlt %d3,1,70000a7c <main+0xa6a>
70000a36:	60 b5       	mov.a %a5,%d11
70000a38:	54 53       	ld.w %d3,[%a5]
70000a3a:	59 a3 10 00 	st.w [%sp]16,%d3
70000a3e:	0d 00 80 04 	dsync 
70000a42:	19 a3 10 00 	ld.w %d3,[%sp]16
70000a46:	8f e3 01 31 	and %d3,%d3,30
70000a4a:	f6 34       	jnz %d3,70000a52 <main+0xa40>
70000a4c:	59 a3 04 00 	st.w [%sp]4,%d3
70000a50:	68 04       	st.w [%a15]0,%d4
70000a52:	19 a3 04 00 	ld.w %d3,[%sp]4
70000a56:	df 13 0a 80 	jne %d3,1,70000a6a <main+0xa58>
70000a5a:	19 a3 0c 00 	ld.w %d3,[%sp]12
70000a5e:	59 43 08 00 	st.w [%a4]8,%d3
70000a62:	59 45 10 00 	st.w [%a4]16,%d5
70000a66:	68 04       	st.w [%a15]0,%d4
70000a68:	00 a0       	debug 
70000a6a:	19 a3 04 00 	ld.w %d3,[%sp]4
70000a6e:	c2 f3       	add %d3,-1
70000a70:	59 a3 04 00 	st.w [%sp]4,%d3
70000a74:	19 a3 04 00 	ld.w %d3,[%sp]4
70000a78:	ff 13 df 7f 	jge %d3,1,70000a36 <main+0xa24>
70000a7c:	19 a9 1c 00 	ld.w %d9,[%sp]28
70000a80:	19 a3 0c 00 	ld.w %d3,[%sp]12
70000a84:	13 49 20 33 	madd %d3,%d3,%d9,4
70000a88:	59 a3 0c 00 	st.w [%sp]12,%d3
70000a8c:	df 0f 10 fb 	jne %d15,0,700000ac <main+0x9a>
70000a90:	82 0f       	mov %d15,0
70000a92:	91 00 f0 fa 	movh.a %a15,44800
70000a96:	d9 ff 54 55 	lea %a15,[%a15]21844 <af005554 <__CSA_END+0x3effd554>>
70000a9a:	6c 44       	st.w [%a4]16,%d15
70000a9c:	da fa       	mov %d15,250
70000a9e:	68 0f       	st.w [%a15]0,%d15
70000aa0:	00 a0       	debug 
70000aa2:	1d ff be fa 	j 7000001e <main+0xc>
	...
